; ModuleID = '57/1112.c'
source_filename = "57/1112.c"
target datalayout = "e-m:e-p270:32:32-p271:32:32-p272:64:64-i64:64-f80:128-n8:16:32:64-S128"
target triple = "x86_64-pc-linux-gnu"

@.str = private unnamed_addr constant [3 x i8] c"%d\00", align 1
@.str.1 = private unnamed_addr constant [3 x i8] c"%s\00", align 1
@.str.2 = private unnamed_addr constant [4 x i8] c"%s\0A\00", align 1

; Function Attrs: noinline nounwind uwtable
define dso_local i32 @main() #0 {
  %1 = alloca i32, align 4
  %2 = alloca [51 x [33 x i8]], align 16
  %3 = alloca i32, align 4
  %4 = alloca i32, align 4
  %5 = alloca i32, align 4
  %6 = alloca i32, align 4
  store i32 0, i32* %1, align 4
  %7 = call i32 (i8*, ...) @__isoc99_scanf(i8* getelementptr inbounds ([3 x i8], [3 x i8]* @.str, i64 0, i64 0), i32* %4)
  store i32 0, i32* %3, align 4
  br label %8

8:                                                ; preds = %135, %0
  %9 = load i32, i32* %3, align 4
  %10 = load i32, i32* %4, align 4
  %11 = icmp slt i32 %9, %10
  br i1 %11, label %12, label %138

12:                                               ; preds = %8
  %13 = load i32, i32* %3, align 4
  %14 = sext i32 %13 to i64
  %15 = getelementptr inbounds [51 x [33 x i8]], [51 x [33 x i8]]* %2, i64 0, i64 %14
  %16 = getelementptr inbounds [33 x i8], [33 x i8]* %15, i64 0, i64 0
  %17 = call i32 (i8*, ...) @__isoc99_scanf(i8* getelementptr inbounds ([3 x i8], [3 x i8]* @.str.1, i64 0, i64 0), i8* %16)
  %18 = load i32, i32* %3, align 4
  %19 = sext i32 %18 to i64
  %20 = getelementptr inbounds [51 x [33 x i8]], [51 x [33 x i8]]* %2, i64 0, i64 %19
  %21 = getelementptr inbounds [33 x i8], [33 x i8]* %20, i64 0, i64 0
  %22 = call i64 @strlen(i8* %21) #3
  %23 = trunc i64 %22 to i32
  store i32 %23, i32* %6, align 4
  %24 = load i32, i32* %6, align 4
  %25 = sub nsw i32 %24, 1
  store i32 %25, i32* %5, align 4
  br label %26

26:                                               ; preds = %131, %12
  %27 = load i32, i32* %5, align 4
  %28 = icmp sgt i32 %27, 0
  br i1 %28, label %29, label %134

29:                                               ; preds = %26
  %30 = load i32, i32* %3, align 4
  %31 = sext i32 %30 to i64
  %32 = getelementptr inbounds [51 x [33 x i8]], [51 x [33 x i8]]* %2, i64 0, i64 %31
  %33 = load i32, i32* %6, align 4
  %34 = sub nsw i32 %33, 1
  %35 = sext i32 %34 to i64
  %36 = getelementptr inbounds [33 x i8], [33 x i8]* %32, i64 0, i64 %35
  %37 = load i8, i8* %36, align 1
  %38 = sext i8 %37 to i32
  %39 = icmp eq i32 %38, 114
  br i1 %39, label %40, label %59

40:                                               ; preds = %29
  %41 = load i32, i32* %3, align 4
  %42 = sext i32 %41 to i64
  %43 = getelementptr inbounds [51 x [33 x i8]], [51 x [33 x i8]]* %2, i64 0, i64 %42
  %44 = load i32, i32* %6, align 4
  %45 = sub nsw i32 %44, 2
  %46 = sext i32 %45 to i64
  %47 = getelementptr inbounds [33 x i8], [33 x i8]* %43, i64 0, i64 %46
  %48 = load i8, i8* %47, align 1
  %49 = sext i8 %48 to i32
  %50 = icmp eq i32 %49, 101
  br i1 %50, label %51, label %59

51:                                               ; preds = %40
  %52 = load i32, i32* %3, align 4
  %53 = sext i32 %52 to i64
  %54 = getelementptr inbounds [51 x [33 x i8]], [51 x [33 x i8]]* %2, i64 0, i64 %53
  %55 = load i32, i32* %5, align 4
  %56 = sub nsw i32 %55, 1
  %57 = sext i32 %56 to i64
  %58 = getelementptr inbounds [33 x i8], [33 x i8]* %54, i64 0, i64 %57
  store i8 0, i8* %58, align 1
  br label %130

59:                                               ; preds = %40, %29
  %60 = load i32, i32* %3, align 4
  %61 = sext i32 %60 to i64
  %62 = getelementptr inbounds [51 x [33 x i8]], [51 x [33 x i8]]* %2, i64 0, i64 %61
  %63 = load i32, i32* %5, align 4
  %64 = sext i32 %63 to i64
  %65 = getelementptr inbounds [33 x i8], [33 x i8]* %62, i64 0, i64 %64
  %66 = load i8, i8* %65, align 1
  %67 = sext i8 %66 to i32
  %68 = icmp eq i32 %67, 121
  br i1 %68, label %69, label %88

69:                                               ; preds = %59
  %70 = load i32, i32* %3, align 4
  %71 = sext i32 %70 to i64
  %72 = getelementptr inbounds [51 x [33 x i8]], [51 x [33 x i8]]* %2, i64 0, i64 %71
  %73 = load i32, i32* %5, align 4
  %74 = sub nsw i32 %73, 1
  %75 = sext i32 %74 to i64
  %76 = getelementptr inbounds [33 x i8], [33 x i8]* %72, i64 0, i64 %75
  %77 = load i8, i8* %76, align 1
  %78 = sext i8 %77 to i32
  %79 = icmp eq i32 %78, 108
  br i1 %79, label %80, label %88

80:                                               ; preds = %69
  %81 = load i32, i32* %3, align 4
  %82 = sext i32 %81 to i64
  %83 = getelementptr inbounds [51 x [33 x i8]], [51 x [33 x i8]]* %2, i64 0, i64 %82
  %84 = load i32, i32* %5, align 4
  %85 = sub nsw i32 %84, 1
  %86 = sext i32 %85 to i64
  %87 = getelementptr inbounds [33 x i8], [33 x i8]* %83, i64 0, i64 %86
  store i8 0, i8* %87, align 1
  br label %129

88:                                               ; preds = %69, %59
  %89 = load i32, i32* %3, align 4
  %90 = sext i32 %89 to i64
  %91 = getelementptr inbounds [51 x [33 x i8]], [51 x [33 x i8]]* %2, i64 0, i64 %90
  %92 = load i32, i32* %5, align 4
  %93 = sext i32 %92 to i64
  %94 = getelementptr inbounds [33 x i8], [33 x i8]* %91, i64 0, i64 %93
  %95 = load i8, i8* %94, align 1
  %96 = sext i8 %95 to i32
  %97 = icmp eq i32 %96, 103
  br i1 %97, label %98, label %128

98:                                               ; preds = %88
  %99 = load i32, i32* %3, align 4
  %100 = sext i32 %99 to i64
  %101 = getelementptr inbounds [51 x [33 x i8]], [51 x [33 x i8]]* %2, i64 0, i64 %100
  %102 = load i32, i32* %5, align 4
  %103 = sub nsw i32 %102, 1
  %104 = sext i32 %103 to i64
  %105 = getelementptr inbounds [33 x i8], [33 x i8]* %101, i64 0, i64 %104
  %106 = load i8, i8* %105, align 1
  %107 = sext i8 %106 to i32
  %108 = icmp eq i32 %107, 110
  br i1 %108, label %109, label %128

109:                                              ; preds = %98
  %110 = load i32, i32* %3, align 4
  %111 = sext i32 %110 to i64
  %112 = getelementptr inbounds [51 x [33 x i8]], [51 x [33 x i8]]* %2, i64 0, i64 %111
  %113 = load i32, i32* %5, align 4
  %114 = sub nsw i32 %113, 2
  %115 = sext i32 %114 to i64
  %116 = getelementptr inbounds [33 x i8], [33 x i8]* %112, i64 0, i64 %115
  %117 = load i8, i8* %116, align 1
  %118 = sext i8 %117 to i32
  %119 = icmp eq i32 %118, 105
  br i1 %119, label %120, label %128

120:                                              ; preds = %109
  %121 = load i32, i32* %3, align 4
  %122 = sext i32 %121 to i64
  %123 = getelementptr inbounds [51 x [33 x i8]], [51 x [33 x i8]]* %2, i64 0, i64 %122
  %124 = load i32, i32* %5, align 4
  %125 = sub nsw i32 %124, 2
  %126 = sext i32 %125 to i64
  %127 = getelementptr inbounds [33 x i8], [33 x i8]* %123, i64 0, i64 %126
  store i8 0, i8* %127, align 1
  br label %128

128:                                              ; preds = %120, %109, %98, %88
  br label %129

129:                                              ; preds = %128, %80
  br label %130

130:                                              ; preds = %129, %51
  br label %131

131:                                              ; preds = %130
  %132 = load i32, i32* %5, align 4
  %133 = add nsw i32 %132, -1
  store i32 %133, i32* %5, align 4
  br label %26

134:                                              ; preds = %26
  br label %135

135:                                              ; preds = %134
  %136 = load i32, i32* %3, align 4
  %137 = add nsw i32 %136, 1
  store i32 %137, i32* %3, align 4
  br label %8

138:                                              ; preds = %8
  store i32 0, i32* %3, align 4
  br label %139

139:                                              ; preds = %149, %138
  %140 = load i32, i32* %3, align 4
  %141 = load i32, i32* %4, align 4
  %142 = icmp slt i32 %140, %141
  br i1 %142, label %143, label %152

143:                                              ; preds = %139
  %144 = load i32, i32* %3, align 4
  %145 = sext i32 %144 to i64
  %146 = getelementptr inbounds [51 x [33 x i8]], [51 x [33 x i8]]* %2, i64 0, i64 %145
  %147 = getelementptr inbounds [33 x i8], [33 x i8]* %146, i64 0, i64 0
  %148 = call i32 (i8*, ...) @printf(i8* getelementptr inbounds ([4 x i8], [4 x i8]* @.str.2, i64 0, i64 0), i8* %147)
  br label %149

149:                                              ; preds = %143
  %150 = load i32, i32* %3, align 4
  %151 = add nsw i32 %150, 1
  store i32 %151, i32* %3, align 4
  br label %139

152:                                              ; preds = %139
  ret i32 0
}

declare dso_local i32 @__isoc99_scanf(i8*, ...) #1

; Function Attrs: nounwind readonly
declare dso_local i64 @strlen(i8*) #2

declare dso_local i32 @printf(i8*, ...) #1


!llvm.module.flags = !{!0}
!llvm.ident = !{!1}

!0 = !{i32 1, !"wchar_size", i32 4}
!1 = !{!"clang version 10.0.0-4ubuntu1 "}
